target datalayout = "e-m:e-p270:32:32-p271:32:32-p272:64:64-i64:64-i128:128-f80:128-n8:16:32:64-S128"
target triple = "x86_64-pc-linux-gnu"

%struct.SlruCtlData = type { ptr, i16, i8, i32, ptr, [64 x i8] }
%struct.proclist_head = type { i32, i32 }
%struct.MultiXactStateData = type { i32, i32, i8, i32, i32, i32, i8, i32, i32, i32, i32, i32, %struct.ConditionVariable, [0 x i32] }
%struct.ConditionVariable = type { i8, %struct.proclist_head }
%struct.SlruSharedData = type { i32, ptr, ptr, ptr, ptr, ptr, ptr, ptr, ptr, ptr, i32, %struct.pg_atomic_uint64, i32 }
%struct.pg_atomic_uint64 = type { i64 }

@MultiXactState = internal global ptr null, align 8
@MultiXactOffsetCtlData = internal global %struct.SlruCtlData zeroinitializer, align 8
@MultiXactMemberCtlData = internal global %struct.SlruCtlData zeroinitializer, align 8

; Function Attrs: inlinehint nounwind uwtable
define internal void @pg_atomic_write_u64_impl(ptr noundef %0, i64 noundef %1) #4 {
  %3 = alloca ptr, align 8
  %4 = alloca i64, align 8
  store ptr %0, ptr %3, align 8
  store i64 %1, ptr %4, align 8
  %5 = load i64, ptr %4, align 8
  %6 = load ptr, ptr %3, align 8
  %7 = getelementptr inbounds nuw %struct.pg_atomic_uint64, ptr %6, i32 0, i32 0
  store volatile i64 %5, ptr %7, align 8
  ret void
}

; Function Attrs: inlinehint nounwind uwtable
define internal i64 @MXOffsetToMemberPage(i32 noundef %0) #4 {
  %2 = alloca i32, align 4
  store i32 %0, ptr %2, align 4
  %3 = load i32, ptr %2, align 4
  %4 = zext i32 %3 to i64
  %5 = udiv i64 %4, 1636
  ret i64 %5
}

; Function Attrs: inlinehint nounwind uwtable
define internal void @pg_atomic_write_u64(ptr noundef %0, i64 noundef %1) #4 {
  %3 = alloca ptr, align 8
  %4 = alloca i64, align 8
  store ptr %0, ptr %3, align 8
  store i64 %1, ptr %4, align 8
  %5 = load ptr, ptr %3, align 8
  %6 = load i64, ptr %4, align 8
  call void @pg_atomic_write_u64_impl(ptr noundef %5, i64 noundef %6)
  ret void
}

; Function Attrs: inlinehint nounwind uwtable
define internal i64 @MultiXactIdToOffsetPage(i32 noundef %0) #4 {
  %2 = alloca i32, align 4
  store i32 %0, ptr %2, align 4
  %3 = load i32, ptr %2, align 4
  %4 = zext i32 %3 to i64
  %5 = udiv i64 %4, 2048
  ret i64 %5
}

; Function Attrs: nounwind uwtable
define dso_local void @StartupMultiXact() #0 {
  %1 = alloca i32, align 4
  %2 = alloca i32, align 4
  %3 = alloca i64, align 8
  call void @llvm.lifetime.start.p0(i64 4, ptr %1) #9
  %4 = load ptr, ptr @MultiXactState, align 8
  %5 = getelementptr inbounds nuw %struct.MultiXactStateData, ptr %4, i32 0, i32 0
  %6 = load i32, ptr %5, align 4
  store i32 %6, ptr %1, align 4
  call void @llvm.lifetime.start.p0(i64 4, ptr %2) #9
  %7 = load ptr, ptr @MultiXactState, align 8
  %8 = getelementptr inbounds nuw %struct.MultiXactStateData, ptr %7, i32 0, i32 1
  %9 = load i32, ptr %8, align 4
  store i32 %9, ptr %2, align 4
  call void @llvm.lifetime.start.p0(i64 8, ptr %3) #9
  %10 = load i32, ptr %1, align 4
  %11 = call i64 @MultiXactIdToOffsetPage(i32 noundef %10)
  store i64 %11, ptr %3, align 8
  %12 = load ptr, ptr @MultiXactOffsetCtlData, align 8
  %13 = getelementptr inbounds nuw %struct.SlruSharedData, ptr %12, i32 0, i32 11
  %14 = load i64, ptr %3, align 8
  call void @pg_atomic_write_u64(ptr noundef %13, i64 noundef %14)
  %15 = load i32, ptr %2, align 4
  %16 = call i64 @MXOffsetToMemberPage(i32 noundef %15)
  store i64 %16, ptr %3, align 8
  %17 = load ptr, ptr @MultiXactMemberCtlData, align 8
  %18 = getelementptr inbounds nuw %struct.SlruSharedData, ptr %17, i32 0, i32 11
  %19 = load i64, ptr %3, align 8
  call void @pg_atomic_write_u64(ptr noundef %18, i64 noundef %19)
  call void @llvm.lifetime.end.p0(i64 8, ptr %3) #9
  call void @llvm.lifetime.end.p0(i64 4, ptr %2) #9
  call void @llvm.lifetime.end.p0(i64 4, ptr %1) #9
  ret void
}