; Function Attrs: nofree norecurse nounwind uwtable
define dso_local void @StartupMultiXact() local_unnamed_addr #7 {
  %1 = load ptr, ptr @MultiXactState, align 8
  %2 = load i32, ptr %1, align 4
  %3 = getelementptr inbounds nuw i8, ptr %1, i64 4
  %4 = load i32, ptr %3, align 4
  %5 = lshr i32 %2, 11
  %6 = zext nneg i32 %5 to i64
  %7 = load ptr, ptr @MultiXactOffsetCtlData, align 8
  %8 = getelementptr inbounds nuw i8, ptr %7, i64 88
  store volatile i64 %6, ptr %8, align 8
  %9 = udiv i32 %4, 1636
  %10 = zext nneg i32 %9 to i64
  %11 = load ptr, ptr @MultiXactMemberCtlData, align 8
  %12 = getelementptr inbounds nuw i8, ptr %11, i64 88
  store volatile i64 %10, ptr %12, align 8
  ret void
}